target datalayout = "e-m:e-p270:32:32-p271:32:32-p272:64:64-i64:64-i128:128-f80:128-n8:16:32:64-S128"
target triple = "x86_64-pc-linux-gnu"

; Function Attrs: nounwind uwtable
define internal void @left_predict(ptr noundef %0, ptr noundef %1, ptr noundef %2, i64 noundef %3, i32 noundef %4, i32 noundef %5) #1 {
  %7 = alloca ptr, align 8
  %8 = alloca ptr, align 8
  %9 = alloca ptr, align 8
  %10 = alloca i64, align 8
  %11 = alloca i32, align 4
  %12 = alloca i32, align 4
  %13 = alloca i8, align 1
  %14 = alloca i32, align 4
  %15 = alloca i32, align 4
  store ptr %0, ptr %7, align 8, !tbaa !29
  store ptr %1, ptr %8, align 8, !tbaa !48
  store ptr %2, ptr %9, align 8, !tbaa !48
  store i64 %3, ptr %10, align 8, !tbaa !46
  store i32 %4, ptr %11, align 4, !tbaa !38
  store i32 %5, ptr %12, align 4, !tbaa !38
  call void @llvm.lifetime.start.p0(i64 1, ptr %13) #11
  store i8 0, ptr %13, align 1, !tbaa !86
  call void @llvm.lifetime.start.p0(i64 4, ptr %14) #11
  call void @llvm.lifetime.start.p0(i64 4, ptr %15) #11
  store i32 0, ptr %14, align 4, !tbaa !38
  br label %16

16:                                               ; preds = %40, %6
  %17 = load i32, ptr %14, align 4, !tbaa !38
  %18 = load i32, ptr %11, align 4, !tbaa !38
  %19 = icmp slt i32 %17, %18
  br i1 %19, label %20, label %43

20:                                               ; preds = %16
  %21 = load ptr, ptr %8, align 8, !tbaa !48
  %22 = load i32, ptr %14, align 4, !tbaa !38
  %23 = sext i32 %22 to i64
  %24 = getelementptr inbounds i8, ptr %21, i64 %23
  %25 = load i8, ptr %24, align 1, !tbaa !86
  %26 = zext i8 %25 to i32
  %27 = load i8, ptr %13, align 1, !tbaa !86
  %28 = zext i8 %27 to i32
  %29 = sub nsw i32 %26, %28
  %30 = trunc i32 %29 to i8
  %31 = load ptr, ptr %9, align 8, !tbaa !48
  %32 = load i32, ptr %14, align 4, !tbaa !38
  %33 = sext i32 %32 to i64
  %34 = getelementptr inbounds i8, ptr %31, i64 %33
  store i8 %30, ptr %34, align 1, !tbaa !86
  %35 = load ptr, ptr %8, align 8, !tbaa !48
  %36 = load i32, ptr %14, align 4, !tbaa !38
  %37 = sext i32 %36 to i64
  %38 = getelementptr inbounds i8, ptr %35, i64 %37
  %39 = load i8, ptr %38, align 1, !tbaa !86
  store i8 %39, ptr %13, align 1, !tbaa !86
  br label %40

40:                                               ; preds = %20
  %41 = load i32, ptr %14, align 4, !tbaa !38
  %42 = add nsw i32 %41, 1
  store i32 %42, ptr %14, align 4, !tbaa !38
  br label %16, !llvm.loop !87

43:                                               ; preds = %16
  %44 = load i32, ptr %11, align 4, !tbaa !38
  %45 = load ptr, ptr %9, align 8, !tbaa !48
  %46 = sext i32 %44 to i64
  %47 = getelementptr inbounds i8, ptr %45, i64 %46
  store ptr %47, ptr %9, align 8, !tbaa !48
  %48 = load i64, ptr %10, align 8, !tbaa !46
  %49 = load ptr, ptr %8, align 8, !tbaa !48
  %50 = getelementptr inbounds i8, ptr %49, i64 %48
  store ptr %50, ptr %8, align 8, !tbaa !48
  store i32 1, ptr %15, align 4, !tbaa !38
  br label %51

51:                                               ; preds = %96, %43
  %52 = load i32, ptr %15, align 4, !tbaa !38
  %53 = load i32, ptr %12, align 4, !tbaa !38
  %54 = icmp slt i32 %52, %53
  br i1 %54, label %55, label %99

55:                                               ; preds = %51
  %56 = load ptr, ptr %8, align 8, !tbaa !48
  %57 = load i64, ptr %10, align 8, !tbaa !46
  %58 = sub nsw i64 0, %57
  %59 = getelementptr inbounds i8, ptr %56, i64 %58
  %60 = load i8, ptr %59, align 1, !tbaa !86
  store i8 %60, ptr %13, align 1, !tbaa !86
  store i32 0, ptr %14, align 4, !tbaa !38
  br label %61

61:                                               ; preds = %85, %55
  %62 = load i32, ptr %14, align 4, !tbaa !38
  %63 = load i32, ptr %11, align 4, !tbaa !38
  %64 = icmp slt i32 %62, %63
  br i1 %64, label %65, label %88

65:                                               ; preds = %61
  %66 = load ptr, ptr %8, align 8, !tbaa !48
  %67 = load i32, ptr %14, align 4, !tbaa !38
  %68 = sext i32 %67 to i64
  %69 = getelementptr inbounds i8, ptr %66, i64 %68
  %70 = load i8, ptr %69, align 1, !tbaa !86
  %71 = zext i8 %70 to i32
  %72 = load i8, ptr %13, align 1, !tbaa !86
  %73 = zext i8 %72 to i32
  %74 = sub nsw i32 %71, %73
  %75 = trunc i32 %74 to i8
  %76 = load ptr, ptr %9, align 8, !tbaa !48
  %77 = load i32, ptr %14, align 4, !tbaa !38
  %78 = sext i32 %77 to i64
  %79 = getelementptr inbounds i8, ptr %76, i64 %78
  store i8 %75, ptr %79, align 1, !tbaa !86
  %80 = load ptr, ptr %8, align 8, !tbaa !48
  %81 = load i32, ptr %14, align 4, !tbaa !38
  %82 = sext i32 %81 to i64
  %83 = getelementptr inbounds i8, ptr %80, i64 %82
  %84 = load i8, ptr %83, align 1, !tbaa !86
  store i8 %84, ptr %13, align 1, !tbaa !86
  br label %85

85:                                               ; preds = %65
  %86 = load i32, ptr %14, align 4, !tbaa !38
  %87 = add nsw i32 %86, 1
  store i32 %87, ptr %14, align 4, !tbaa !38
  br label %61, !llvm.loop !88

88:                                               ; preds = %61
  %89 = load i32, ptr %11, align 4, !tbaa !38
  %90 = load ptr, ptr %9, align 8, !tbaa !48
  %91 = sext i32 %89 to i64
  %92 = getelementptr inbounds i8, ptr %90, i64 %91
  store ptr %92, ptr %9, align 8, !tbaa !48
  %93 = load i64, ptr %10, align 8, !tbaa !46
  %94 = load ptr, ptr %8, align 8, !tbaa !48
  %95 = getelementptr inbounds i8, ptr %94, i64 %93
  store ptr %95, ptr %8, align 8, !tbaa !48
  br label %96

96:                                               ; preds = %88
  %97 = load i32, ptr %15, align 4, !tbaa !38
  %98 = add nsw i32 %97, 1
  store i32 %98, ptr %15, align 4, !tbaa !38
  br label %51, !llvm.loop !89

99:                                               ; preds = %51
  call void @llvm.lifetime.end.p0(i64 4, ptr %15) #11
  call void @llvm.lifetime.end.p0(i64 4, ptr %14) #11
  call void @llvm.lifetime.end.p0(i64 1, ptr %13) #11
  ret void
}