; Function Attrs: nofree norecurse nosync nounwind memory(argmem: readwrite) uwtable
define internal void @left_predict(ptr readnone captures(none) %0, ptr noundef readonly captures(none) %1, ptr noundef writeonly captures(none) %2, i64 noundef %3, i32 noundef %4, i32 noundef %5) #4 {
  %7 = icmp sgt i32 %4, 0
  br i1 %7, label %.lr.ph.preheader, label %._crit_edge51

.lr.ph.preheader:                                 ; preds = %6
  %wide.trip.count = zext nneg i32 %4 to i64
  br label %.lr.ph

.lr.ph:                                           ; preds = %.lr.ph.preheader, %.lr.ph
  %indvars.iv = phi i64 [ 0, %.lr.ph.preheader ], [ %indvars.iv.next, %.lr.ph ]
  %.03339 = phi i8 [ 0, %.lr.ph.preheader ], [ %12, %.lr.ph ]
  %8 = getelementptr inbounds nuw i8, ptr %1, i64 %indvars.iv
  %9 = load i8, ptr %8, align 1, !tbaa !55
  %10 = sub i8 %9, %.03339
  %11 = getelementptr inbounds nuw i8, ptr %2, i64 %indvars.iv
  store i8 %10, ptr %11, align 1, !tbaa !55
  %12 = load i8, ptr %8, align 1, !tbaa !55
  %indvars.iv.next = add nuw nsw i64 %indvars.iv, 1
  %exitcond.not = icmp eq i64 %indvars.iv.next, %wide.trip.count
  br i1 %exitcond.not, label %._crit_edge, label %.lr.ph, !llvm.loop !104

._crit_edge:                                      ; preds = %.lr.ph
  %13 = zext nneg i32 %4 to i64
  %14 = icmp slt i32 %5, 2
  br i1 %14, label %._crit_edge51, label %.preheader.us.preheader

.preheader.us.preheader:                          ; preds = %._crit_edge
  %wide.trip.count56 = zext nneg i32 %4 to i64
  br label %.preheader.us

.preheader.us:                                    ; preds = %.preheader.us.preheader, %._crit_edge44.us
  %.03650.us.pn = phi ptr [ %.03650.us, %._crit_edge44.us ], [ %2, %.preheader.us.preheader ]
  %.048.us = phi i32 [ %20, %._crit_edge44.us ], [ 1, %.preheader.us.preheader ]
  %.pn3847.us = phi ptr [ %.03549.us, %._crit_edge44.us ], [ %1, %.preheader.us.preheader ]
  %.03549.us = getelementptr inbounds i8, ptr %.pn3847.us, i64 %3
  %.03650.us = getelementptr inbounds nuw i8, ptr %.03650.us.pn, i64 %13
  br label %15

15:                                               ; preds = %.preheader.us, %15
  %indvars.iv53 = phi i64 [ 0, %.preheader.us ], [ %indvars.iv.next54, %15 ]
  %.134.in41.us = phi ptr [ %.pn3847.us, %.preheader.us ], [ %16, %15 ]
  %.134.us = load i8, ptr %.134.in41.us, align 1, !tbaa !55
  %16 = getelementptr inbounds nuw i8, ptr %.03549.us, i64 %indvars.iv53
  %17 = load i8, ptr %16, align 1, !tbaa !55
  %18 = sub i8 %17, %.134.us
  %19 = getelementptr inbounds nuw i8, ptr %.03650.us, i64 %indvars.iv53
  store i8 %18, ptr %19, align 1, !tbaa !55
  %indvars.iv.next54 = add nuw nsw i64 %indvars.iv53, 1
  %exitcond57.not = icmp eq i64 %indvars.iv.next54, %wide.trip.count56
  br i1 %exitcond57.not, label %._crit_edge44.us, label %15, !llvm.loop !105

._crit_edge44.us:                                 ; preds = %15
  %20 = add nuw nsw i32 %.048.us, 1
  %exitcond58.not = icmp eq i32 %20, %5
  br i1 %exitcond58.not, label %._crit_edge51, label %.preheader.us, !llvm.loop !106

._crit_edge51:                                    ; preds = %._crit_edge44.us, %._crit_edge, %6
  ret void
}